(dp1
S'output'
p2
S"<type 'exceptions.AttributeError'> 'Auth' object has no attribute 'create_tables'"
p3
sS'layer'
p4
S'/Users/elcapone/Desktop/Codetrain/web2py app/web2py.app/Contents/Resources/applications/Autocart/models/db.py'
p5
sS'code'
p6
S'<code object <module> at 0x108046b30, file "/Users/elcapone/Desktop/Codetrain/web2py app/web2py.app/Contents/Resources/applications/Autocart/models/db.py", line 7>'
p7
sS'snapshot'
p8
(dp9
S'exception'
p10
(dp11
S'__getslice__'
p12
S"<method-wrapper '__getslice__' of exceptions.AttributeError object>"
p13
sS'__str__'
p14
S"<method-wrapper '__str__' of exceptions.AttributeError object>"
p15
sS'__reduce__'
p16
S'<built-in method __reduce__ of exceptions.AttributeError object>'
p17
sS'__dict__'
p18
S'{}'
p19
sS'message'
p20
S'"\'Auth\' object has no attribute \'create_tables\'"'
p21
sS'__sizeof__'
p22
S'<built-in method __sizeof__ of exceptions.AttributeError object>'
p23
sS'__init__'
p24
S"<method-wrapper '__init__' of exceptions.AttributeError object>"
p25
sS'__setattr__'
p26
S"<method-wrapper '__setattr__' of exceptions.AttributeError object>"
p27
sS'__reduce_ex__'
p28
S'<built-in method __reduce_ex__ of exceptions.AttributeError object>'
p29
sS'__new__'
p30
S'<built-in method __new__ of type object>'
p31
sS'__format__'
p32
S'<built-in method __format__ of exceptions.AttributeError object>'
p33
sS'__class__'
p34
S"<type 'exceptions.AttributeError'>"
p35
sS'__doc__'
p36
S"'Attribute not found.'"
p37
sS'__getitem__'
p38
S"<method-wrapper '__getitem__' of exceptions.AttributeError object>"
p39
sS'__setstate__'
p40
S'<built-in method __setstate__ of exceptions.AttributeError object>'
p41
sS'__getattribute__'
p42
S"<method-wrapper '__getattribute__' of exceptions.AttributeError object>"
p43
sS'args'
p44
S'("\'Auth\' object has no attribute \'create_tables\'",)'
p45
sS'__subclasshook__'
p46
S'<built-in method __subclasshook__ of type object>'
p47
sS'__unicode__'
p48
S'<built-in method __unicode__ of exceptions.AttributeError object>'
p49
sS'__delattr__'
p50
S"<method-wrapper '__delattr__' of exceptions.AttributeError object>"
p51
sS'__repr__'
p52
S"<method-wrapper '__repr__' of exceptions.AttributeError object>"
p53
sS'__hash__'
p54
S"<method-wrapper '__hash__' of exceptions.AttributeError object>"
p55
ssS'evalue'
p56
S"'Auth' object has no attribute 'create_tables'"
p57
sS'request'
p58
cgluon.html
XML_unpickle
p59
(S's9b\x00\x00<div><table><tr><td style="font-weight:bold;vertical-align:top;">ajax</td><td style="vertical-align:top;">:</td><td><div>False</div></td></tr><tr><td style="font-weight:bold;vertical-align:top;">application</td><td style="vertical-align:top;">:</td><td><div>Autocart</div></td></tr><tr><td style="font-weight:bold;vertical-align:top;">args</td><td style="vertical-align:top;">:</td><td><div><table></table></div></td></tr><tr><td style="font-weight:bold;vertical-align:top;">cid</td><td style="vertical-align:top;">:</td><td><div>None</div></td></tr><tr><td style="font-weight:bold;vertical-align:top;">client</td><td style="vertical-align:top;">:</td><td><div>127.0.0.1</div></td></tr><tr><td style="font-weight:bold;vertical-align:top;">controller</td><td style="vertical-align:top;">:</td><td><div>default</div></td></tr><tr><td style="font-weight:bold;vertical-align:top;">cookies</td><td style="vertical-align:top;">:</td><td><div><table><tr><td style="font-weight:bold;vertical-align:top;">session_id_admin</td><td style="vertical-align:top;">:</td><td><div>127.0.0.1-f356ebc2-2ac6-427d-be98-8be8f0407f01<table><tr><td style="font-weight:bold;vertical-align:top;">comment</td><td style="vertical-align:top;">:</td><td><div></div></td></tr><tr><td style="font-weight:bold;vertical-align:top;">domain</td><td style="vertical-align:top;">:</td><td><div></div></td></tr><tr><td style="font-weight:bold;vertical-align:top;">expires</td><td style="vertical-align:top;">:</td><td><div></div></td></tr><tr><td style="font-weight:bold;vertical-align:top;">httponly</td><td style="vertical-align:top;">:</td><td><div></div></td></tr><tr><td style="font-weight:bold;vertical-align:top;">max-age</td><td style="vertical-align:top;">:</td><td><div></div></td></tr><tr><td style="font-weight:bold;vertical-align:top;">path</td><td style="vertical-align:top;">:</td><td><div></div></td></tr><tr><td style="font-weight:bold;vertical-align:top;">secure</td><td style="vertical-align:top;">:</td><td><div></div></td></tr><tr><td style="font-weight:bold;vertical-align:top;">version</td><td style="vertical-align:top;">:</td><td><div></div></td></tr></table></div></td></tr><tr><td style="font-weight:bold;vertical-align:top;">session_id_autocart</td><td style="vertical-align:top;">:</td><td><div>127.0.0.1-ef32940d-fc48-45a5-aaa3-94484894224a<table><tr><td style="font-weight:bold;vertical-align:top;">comment</td><td style="vertical-align:top;">:</td><td><div></div></td></tr><tr><td style="font-weight:bold;vertical-align:top;">domain</td><td style="vertical-align:top;">:</td><td><div></div></td></tr><tr><td style="font-weight:bold;vertical-align:top;">expires</td><td style="vertical-align:top;">:</td><td><div></div></td></tr><tr><td style="font-weight:bold;vertical-align:top;">httponly</td><td style="vertical-align:top;">:</td><td><div></div></td></tr><tr><td style="font-weight:bold;vertical-align:top;">max-age</td><td style="vertical-align:top;">:</td><td><div></div></td></tr><tr><td style="font-weight:bold;vertical-align:top;">path</td><td style="vertical-align:top;">:</td><td><div></div></td></tr><tr><td style="font-weight:bold;vertical-align:top;">secure</td><td style="vertical-align:top;">:</td><td><div></div></td></tr><tr><td style="font-weight:bold;vertical-align:top;">version</td><td style="vertical-align:top;">:</td><td><div></div></td></tr></table></div></td></tr><tr><td style="font-weight:bold;vertical-align:top;">session_id_managepatient</td><td style="vertical-align:top;">:</td><td><div>127.0.0.1-5ba446d7-adaa-4840-8bfe-b3e2cc87b2d4<table><tr><td style="font-weight:bold;vertical-align:top;">comment</td><td style="vertical-align:top;">:</td><td><div></div></td></tr><tr><td style="font-weight:bold;vertical-align:top;">domain</td><td style="vertical-align:top;">:</td><td><div></div></td></tr><tr><td style="font-weight:bold;vertical-align:top;">expires</td><td style="vertical-align:top;">:</td><td><div></div></td></tr><tr><td style="font-weight:bold;vertical-align:top;">httponly</td><td style="vertical-align:top;">:</td><td><div></div></td></tr><tr><td style="font-weight:bold;vertical-align:top;">max-age</td><td style="vertical-align:top;">:</td><td><div></div></td></tr><tr><td style="font-weight:bold;vertical-align:top;">path</td><td style="vertical-align:top;">:</td><td><div></div></td></tr><tr><td style="font-weight:bold;vertical-align:top;">secure</td><td style="vertical-align:top;">:</td><td><div></div></td></tr><tr><td style="font-weight:bold;vertical-align:top;">version</td><td style="vertical-align:top;">:</td><td><div></div></td></tr></table></div></td></tr></table></div></td></tr><tr><td style="font-weight:bold;vertical-align:top;">env</td><td style="vertical-align:top;">:</td><td><div><table><tr><td style="font-weight:bold;vertical-align:top;">HTTP_ACCEPT</td><td style="vertical-align:top;">:</td><td><div>text/html,application/xhtml+xml,application/xml;q=0.9,image/webp,image/apng,*/*;q=0.8</div></td></tr><tr><td style="font-weight:bold;vertical-align:top;">HTTP_ACCEPT_ENCODING</td><td style="vertical-align:top;">:</td><td><div>gzip, deflate, br</div></td></tr><tr><td style="font-weight:bold;vertical-align:top;">HTTP_ACCEPT_LANGUAGE</td><td style="vertical-align:top;">:</td><td><div>en-US,en;q=0.9</div></td></tr><tr><td style="font-weight:bold;vertical-align:top;">HTTP_CACHE_CONTROL</td><td style="vertical-align:top;">:</td><td><div>max-age=0</div></td></tr><tr><td style="font-weight:bold;vertical-align:top;">HTTP_CONNECTION</td><td style="vertical-align:top;">:</td><td><div>keep-alive</div></td></tr><tr><td style="font-weight:bold;vertical-align:top;">HTTP_COOKIE</td><td style="vertical-align:top;">:</td><td><div>session_id_autocart=127.0.0.1-ef32940d-fc48-45a5-aaa3-94484894224a; session_id_admin=127.0.0.1-f356ebc2-2ac6-427d-be98-8be8f0407f01; session_id_managepatient=127.0.0.1-5ba446d7-adaa-4840-8bfe-b3e2cc87b2d4</div></td></tr><tr><td style="font-weight:bold;vertical-align:top;">HTTP_HOST</td><td style="vertical-align:top;">:</td><td><div>127.0.0.1:8000</div></td></tr><tr><td style="font-weight:bold;vertical-align:top;">HTTP_UPGRADE_INSECURE_REQUESTS</td><td style="vertical-align:top;">:</td><td><div>1</div></td></tr><tr><td style="font-weight:bold;vertical-align:top;">HTTP_USER_AGENT</td><td style="vertical-align:top;">:</td><td><div>Mozilla/5.0 (Macintosh; Intel Mac OS X 10_13_1) AppleWebKit/537.36 (KHTML, like Gecko) Chrome/72.0.3626.96 Safari/537.36</div></td></tr><tr><td style="font-weight:bold;vertical-align:top;">PATH_INFO</td><td style="vertical-align:top;">:</td><td><div>/Autocart/default/index</div></td></tr><tr><td style="font-weight:bold;vertical-align:top;">QUERY_STRING</td><td style="vertical-align:top;">:</td><td><div></div></td></tr><tr><td style="font-weight:bold;vertical-align:top;">REMOTE_ADDR</td><td style="vertical-align:top;">:</td><td><div>127.0.0.1</div></td></tr><tr><td style="font-weight:bold;vertical-align:top;">REMOTE_PORT</td><td style="vertical-align:top;">:</td><td><div>50584</div></td></tr><tr><td style="font-weight:bold;vertical-align:top;">REQUEST_METHOD</td><td style="vertical-align:top;">:</td><td><div>GET</div></td></tr><tr><td style="font-weight:bold;vertical-align:top;">SCRIPT_NAME</td><td style="vertical-align:top;">:</td><td><div></div></td></tr><tr><td style="font-weight:bold;vertical-align:top;">SERVER_NAME</td><td style="vertical-align:top;">:</td><td><div>Els-MacBook.local</div></td></tr><tr><td style="font-weight:bold;vertical-align:top;">SERVER_PORT</td><td style="vertical-align:top;">:</td><td><div>8000</div></td></tr><tr><td style="font-weight:bold;vertical-align:top;">SERVER_PROTOCOL</td><td style="vertical-align:top;">:</td><td><div>HTTP/1.1</div></td></tr><tr><td style="font-weight:bold;vertical-align:top;">SERVER_SOFTWARE</td><td style="vertical-align:top;">:</td><td><div>Rocket 1.2.6</div></td></tr><tr><td style="font-weight:bold;vertical-align:top;">app_folders</td><td style="vertical-align:top;">:</td><td><div>set([&#x27;/Users/elcapone/Desktop/Codetrain/web2py app/web2py.app/Contents/Resources/applications/ManagePatient/&#x27;, &#x27;/Users/elcapone/Desktop/Codetrain/web2py app/web2py.app/Contents/Resources/applications/admin/&#x27;, &#x27;/Users/elcapone/Desktop/Codetrain/web2py app/web2py.app/Contents/Resources/applications/welcome/&#x27;, &#x27;/Users/elcapone/Desktop/Codetrain/web2py app/web2py.app/Contents/Resources/applications/Autocart/&#x27;])</div></td></tr><tr><td style="font-weight:bold;vertical-align:top;">applications_parent</td><td style="vertical-align:top;">:</td><td><div>/Users/elcapone/Desktop/Codetrain/web2py app/web2py.app/Contents/Resources</div></td></tr><tr><td style="font-weight:bold;vertical-align:top;">cmd_args</td><td style="vertical-align:top;">:</td><td><div><table></table></div></td></tr><tr><td style="font-weight:bold;vertical-align:top;">cmd_options</td><td style="vertical-align:top;">:</td><td><div>&lt;Values at 0x105da95f0: {&#x27;verbose&#x27;: False, &#x27;ip&#x27;: &#x27;127.0.0.1&#x27;, &#x27;debuglevel&#x27;: 30, &#x27;with_scheduler&#x27;: False, &#x27;shutdown_timeout&#x27;: 5, &#x27;taskbar&#x27;: False, &#x27;with_coverage&#x27;: False, &#x27;pid_filename&#x27;: &#x27;httpserver.pid&#x27;, &#x27;maxthreads&#x27;: None, &#x27;softcron&#x27;: False, &#x27;server_name&#x27;: &#x27;Els-MacBook.local&#x27;, &#x27;bpython&#x27;: False, &#x27;nogui&#x27;: False, &#x27;port&#x27;: 8000, &#x27;print_errors&#x27;: False, &#x27;extcron&#x27;: False, &#x27;runcron&#x27;: False, &#x27;run_system_tests&#x27;: False, &#x27;test&#x27;: None, &#x27;folder&#x27;: &#x27;/Users/elcapone/Desktop/Codetrain/web2py app/web2py.app/Contents/Resources&#x27;, &#x27;config&#x27;: &#x27;&#x27;, &#x27;minthreads&#x27;: None, &#x27;shell&#x27;: None, &#x27;run&#x27;: &#x27;&#x27;, &#x27;log_filename&#x27;: &#x27;httpserver.log&#x27;, &#x27;profiler_dir&#x27;: None, &#x27;args&#x27;: [&#x27;&#x27;], &#x27;socket_timeout&#x27;: 5, &#x27;ssl_ca_certificate&#x27;: None, &#x27;scheduler&#x27;: None, &#x27;interfaces&#x27;: None, &#x27;ssl_private_key&#x27;: &#x27;&#x27;, &#x27;gae&#x27;: None, &#x27;password&#x27;: &#x27;******&#x27;, &#x27;request_queue_size&#x27;: 5, &#x27;ssl_certificate&#x27;: &#x27;&#x27;, &#x27;cronjob&#x27;: False, &#x27;numthreads&#x27;: None, &#x27;quiet&#x27;: False, &#x27;import_models&#x27;: False, &#x27;timeout&#x27;: 10, &#x27;plain&#x27;: False, &#x27;nobanner&#x27;: False}&gt;</div></td></tr><tr><td style="font-weight:bold;vertical-align:top;">db_sessions</td><td style="vertical-align:top;">:</td><td><div>set([])</div></td></tr><tr><td style="font-weight:bold;vertical-align:top;">debugging</td><td style="vertical-align:top;">:</td><td><div>False</div></td></tr><tr><td style="font-weight:bold;vertical-align:top;">gluon_parent</td><td style="vertical-align:top;">:</td><td><div>/Users/elcapone/Desktop/Codetrain/web2py app/web2py.app/Contents/Resources</div></td></tr><tr><td style="font-weight:bold;vertical-align:top;">http_accept</td><td style="vertical-align:top;">:</td><td><div>text/html,application/xhtml+xml,application/xml;q=0.9,image/webp,image/apng,*/*;q=0.8</div></td></tr><tr><td style="font-weight:bold;vertical-align:top;">http_accept_encoding</td><td style="vertical-align:top;">:</td><td><div>gzip, deflate, br</div></td></tr><tr><td style="font-weight:bold;vertical-align:top;">http_accept_language</td><td style="vertical-align:top;">:</td><td><div>en-US,en;q=0.9</div></td></tr><tr><td style="font-weight:bold;vertical-align:top;">http_cache_control</td><td style="vertical-align:top;">:</td><td><div>max-age=0</div></td></tr><tr><td style="font-weight:bold;vertical-align:top;">http_connection</td><td style="vertical-align:top;">:</td><td><div>keep-alive</div></td></tr><tr><td style="font-weight:bold;vertical-align:top;">http_cookie</td><td style="vertical-align:top;">:</td><td><div>session_id_autocart=127.0.0.1-ef32940d-fc48-45a5-aaa3-94484894224a; session_id_admin=127.0.0.1-f356ebc2-2ac6-427d-be98-8be8f0407f01; session_id_managepatient=127.0.0.1-5ba446d7-adaa-4840-8bfe-b3e2cc87b2d4</div></td></tr><tr><td style="font-weight:bold;vertical-align:top;">http_host</td><td style="vertical-align:top;">:</td><td><div>127.0.0.1:8000</div></td></tr><tr><td style="font-weight:bold;vertical-align:top;">http_upgrade_insecure_requests</td><td style="vertical-align:top;">:</td><td><div>1</div></td></tr><tr><td style="font-weight:bold;vertical-align:top;">http_user_agent</td><td style="vertical-align:top;">:</td><td><div>Mozilla/5.0 (Macintosh; Intel Mac OS X 10_13_1) AppleWebKit/537.36 (KHTML, like Gecko) Chrome/72.0.3626.96 Safari/537.36</div></td></tr><tr><td style="font-weight:bold;vertical-align:top;">is_jython</td><td style="vertical-align:top;">:</td><td><div>False</div></td></tr><tr><td style="font-weight:bold;vertical-align:top;">is_py2</td><td style="vertical-align:top;">:</td><td><div>True</div></td></tr><tr><td style="font-weight:bold;vertical-align:top;">is_pypy</td><td style="vertical-align:top;">:</td><td><div>False</div></td></tr><tr><td style="font-weight:bold;vertical-align:top;">is_source</td><td style="vertical-align:top;">:</td><td><div>True</div></td></tr><tr><td style="font-weight:bold;vertical-align:top;">local_hosts</td><td style="vertical-align:top;">:</td><td><div><table><tr><td><div>Els-MacBook.local</div></td></tr><tr><td><div>fd0c:d6bd:2385:6100:1019:6035:f6a1:e49</div></td></tr><tr><td><div>::ffff:127.0.0.1</div></td></tr><tr><td><div>::1</div></td></tr><tr><td><div>fe80::10b9:3807:af80:eace%en0</div></td></tr><tr><td><div>192.168.1.5</div></td></tr><tr><td><div>127.0.0.1</div></td></tr></table></div></td></tr><tr><td style="font-weight:bold;vertical-align:top;">path_info</td><td style="vertical-align:top;">:</td><td><div>/Autocart/default/index</div></td></tr><tr><td style="font-weight:bold;vertical-align:top;">query_string</td><td style="vertical-align:top;">:</td><td><div></div></td></tr><tr><td style="font-weight:bold;vertical-align:top;">remote_addr</td><td style="vertical-align:top;">:</td><td><div>127.0.0.1</div></td></tr><tr><td style="font-weight:bold;vertical-align:top;">remote_port</td><td style="vertical-align:top;">:</td><td><div>50584</div></td></tr><tr><td style="font-weight:bold;vertical-align:top;">request_method</td><td style="vertical-align:top;">:</td><td><div>GET</div></td></tr><tr><td style="font-weight:bold;vertical-align:top;">request_uri</td><td style="vertical-align:top;">:</td><td><div>/Autocart/default/index</div></td></tr><tr><td style="font-weight:bold;vertical-align:top;">script_name</td><td style="vertical-align:top;">:</td><td><div></div></td></tr><tr><td style="font-weight:bold;vertical-align:top;">server_name</td><td style="vertical-align:top;">:</td><td><div>Els-MacBook.local</div></td></tr><tr><td style="font-weight:bold;vertical-align:top;">server_port</td><td style="vertical-align:top;">:</td><td><div>8000</div></td></tr><tr><td style="font-weight:bold;vertical-align:top;">server_protocol</td><td style="vertical-align:top;">:</td><td><div>HTTP/1.1</div></td></tr><tr><td style="font-weight:bold;vertical-align:top;">server_software</td><td style="vertical-align:top;">:</td><td><div>Rocket 1.2.6</div></td></tr><tr><td style="font-weight:bold;vertical-align:top;">web2py_original_uri</td><td style="vertical-align:top;">:</td><td><div>/Autocart/default/index</div></td></tr><tr><td style="font-weight:bold;vertical-align:top;">web2py_path</td><td style="vertical-align:top;">:</td><td><div>/Users/elcapone/Desktop/Codetrain/web2py app/web2py.app/Contents/Resources</div></td></tr><tr><td style="font-weight:bold;vertical-align:top;">web2py_version</td><td style="vertical-align:top;">:</td><td><div>2.17.1-stable+timestamp.2018.08.06.01.02.56</div></td></tr><tr><td style="font-weight:bold;vertical-align:top;">wsgi.errors</td><td style="vertical-align:top;">:</td><td><div>&lt;open file &#x27;&lt;stderr&gt;&#x27;, mode &#x27;w&#x27; at 0x1000b5270&gt;</div></td></tr><tr><td style="font-weight:bold;vertical-align:top;">wsgi.file_wrapper</td><td style="vertical-align:top;">:</td><td><div>&lt;class wsgiref.util.FileWrapper at 0x105d15b48&gt;</div></td></tr><tr><td style="font-weight:bold;vertical-align:top;">wsgi.input</td><td style="vertical-align:top;">:</td><td><div>&lt;socket._fileobject object at 0x1081c0ed0&gt;</div></td></tr><tr><td style="font-weight:bold;vertical-align:top;">wsgi.multiprocess</td><td style="vertical-align:top;">:</td><td><div>False</div></td></tr><tr><td style="font-weight:bold;vertical-align:top;">wsgi.multithread</td><td style="vertical-align:top;">:</td><td><div>True</div></td></tr><tr><td style="font-weight:bold;vertical-align:top;">wsgi.run_once</td><td style="vertical-align:top;">:</td><td><div>False</div></td></tr><tr><td style="font-weight:bold;vertical-align:top;">wsgi.url_scheme</td><td style="vertical-align:top;">:</td><td><div>http</div></td></tr><tr><td style="font-weight:bold;vertical-align:top;">wsgi.version</td><td style="vertical-align:top;">:</td><td><div><table><tr><td><div>1</div></td></tr><tr><td><div>0</div></td></tr></table></div></td></tr><tr><td style="font-weight:bold;vertical-align:top;">wsgi_errors</td><td style="vertical-align:top;">:</td><td><div>&lt;open file &#x27;&lt;stderr&gt;&#x27;, mode &#x27;w&#x27; at 0x1000b5270&gt;</div></td></tr><tr><td style="font-weight:bold;vertical-align:top;">wsgi_file_wrapper</td><td style="vertical-align:top;">:</td><td><div>&lt;class wsgiref.util.FileWrapper at 0x105d15b48&gt;</div></td></tr><tr><td style="font-weight:bold;vertical-align:top;">wsgi_input</td><td style="vertical-align:top;">:</td><td><div>&lt;socket._fileobject object at 0x1081c0ed0&gt;</div></td></tr><tr><td style="font-weight:bold;vertical-align:top;">wsgi_multiprocess</td><td style="vertical-align:top;">:</td><td><div>False</div></td></tr><tr><td style="font-weight:bold;vertical-align:top;">wsgi_multithread</td><td style="vertical-align:top;">:</td><td><div>True</div></td></tr><tr><td style="font-weight:bold;vertical-align:top;">wsgi_run_once</td><td style="vertical-align:top;">:</td><td><div>False</div></td></tr><tr><td style="font-weight:bold;vertical-align:top;">wsgi_url_scheme</td><td style="vertical-align:top;">:</td><td><div>http</div></td></tr><tr><td style="font-weight:bold;vertical-align:top;">wsgi_version</td><td style="vertical-align:top;">:</td><td><div><table><tr><td><div>1</div></td></tr><tr><td><div>0</div></td></tr></table></div></td></tr></table></div></td></tr><tr><td style="font-weight:bold;vertical-align:top;">extension</td><td style="vertical-align:top;">:</td><td><div>html</div></td></tr><tr><td style="font-weight:bold;vertical-align:top;">folder</td><td style="vertical-align:top;">:</td><td><div>/Users/elcapone/Desktop/Codetrain/web2py app/web2py.app/Contents/Resources/applications/Autocart/</div></td></tr><tr><td style="font-weight:bold;vertical-align:top;">function</td><td style="vertical-align:top;">:</td><td><div>index</div></td></tr><tr><td style="font-weight:bold;vertical-align:top;">global_settings</td><td style="vertical-align:top;">:</td><td><div><table><tr><td style="font-weight:bold;vertical-align:top;">app_folders</td><td style="vertical-align:top;">:</td><td><div>set([&#x27;/Users/elcapone/Desktop/Codetrain/web2py app/web2py.app/Contents/Resources/applications/ManagePatient/&#x27;, &#x27;/Users/elcapone/Desktop/Codetrain/web2py app/web2py.app/Contents/Resources/applications/admin/&#x27;, &#x27;/Users/elcapone/Desktop/Codetrain/web2py app/web2py.app/Contents/Resources/applications/welcome/&#x27;, &#x27;/Users/elcapone/Desktop/Codetrain/web2py app/web2py.app/Contents/Resources/applications/Autocart/&#x27;])</div></td></tr><tr><td style="font-weight:bold;vertical-align:top;">applications_parent</td><td style="vertical-align:top;">:</td><td><div>/Users/elcapone/Desktop/Codetrain/web2py app/web2py.app/Contents/Resources</div></td></tr><tr><td style="font-weight:bold;vertical-align:top;">cmd_args</td><td style="vertical-align:top;">:</td><td><div><table></table></div></td></tr><tr><td style="font-weight:bold;vertical-align:top;">cmd_options</td><td style="vertical-align:top;">:</td><td><div>&lt;Values at 0x105da95f0: {&#x27;verbose&#x27;: False, &#x27;ip&#x27;: &#x27;127.0.0.1&#x27;, &#x27;debuglevel&#x27;: 30, &#x27;with_scheduler&#x27;: False, &#x27;shutdown_timeout&#x27;: 5, &#x27;taskbar&#x27;: False, &#x27;with_coverage&#x27;: False, &#x27;pid_filename&#x27;: &#x27;httpserver.pid&#x27;, &#x27;maxthreads&#x27;: None, &#x27;softcron&#x27;: False, &#x27;server_name&#x27;: &#x27;Els-MacBook.local&#x27;, &#x27;bpython&#x27;: False, &#x27;nogui&#x27;: False, &#x27;port&#x27;: 8000, &#x27;print_errors&#x27;: False, &#x27;extcron&#x27;: False, &#x27;runcron&#x27;: False, &#x27;run_system_tests&#x27;: False, &#x27;test&#x27;: None, &#x27;folder&#x27;: &#x27;/Users/elcapone/Desktop/Codetrain/web2py app/web2py.app/Contents/Resources&#x27;, &#x27;config&#x27;: &#x27;&#x27;, &#x27;minthreads&#x27;: None, &#x27;shell&#x27;: None, &#x27;run&#x27;: &#x27;&#x27;, &#x27;log_filename&#x27;: &#x27;httpserver.log&#x27;, &#x27;profiler_dir&#x27;: None, &#x27;args&#x27;: [&#x27;&#x27;], &#x27;socket_timeout&#x27;: 5, &#x27;ssl_ca_certificate&#x27;: None, &#x27;scheduler&#x27;: None, &#x27;interfaces&#x27;: None, &#x27;ssl_private_key&#x27;: &#x27;&#x27;, &#x27;gae&#x27;: None, &#x27;password&#x27;: &#x27;******&#x27;, &#x27;request_queue_size&#x27;: 5, &#x27;ssl_certificate&#x27;: &#x27;&#x27;, &#x27;cronjob&#x27;: False, &#x27;numthreads&#x27;: None, &#x27;quiet&#x27;: False, &#x27;import_models&#x27;: False, &#x27;timeout&#x27;: 10, &#x27;plain&#x27;: False, &#x27;nobanner&#x27;: False}&gt;</div></td></tr><tr><td style="font-weight:bold;vertical-align:top;">db_sessions</td><td style="vertical-align:top;">:</td><td><div>set([])</div></td></tr><tr><td style="font-weight:bold;vertical-align:top;">debugging</td><td style="vertical-align:top;">:</td><td><div>False</div></td></tr><tr><td style="font-weight:bold;vertical-align:top;">gluon_parent</td><td style="vertical-align:top;">:</td><td><div>/Users/elcapone/Desktop/Codetrain/web2py app/web2py.app/Contents/Resources</div></td></tr><tr><td style="font-weight:bold;vertical-align:top;">is_jython</td><td style="vertical-align:top;">:</td><td><div>False</div></td></tr><tr><td style="font-weight:bold;vertical-align:top;">is_py2</td><td style="vertical-align:top;">:</td><td><div>True</div></td></tr><tr><td style="font-weight:bold;vertical-align:top;">is_pypy</td><td style="vertical-align:top;">:</td><td><div>False</div></td></tr><tr><td style="font-weight:bold;vertical-align:top;">is_source</td><td style="vertical-align:top;">:</td><td><div>True</div></td></tr><tr><td style="font-weight:bold;vertical-align:top;">local_hosts</td><td style="vertical-align:top;">:</td><td><div><table><tr><td><div>Els-MacBook.local</div></td></tr><tr><td><div>fd0c:d6bd:2385:6100:1019:6035:f6a1:e49</div></td></tr><tr><td><div>::ffff:127.0.0.1</div></td></tr><tr><td><div>::1</div></td></tr><tr><td><div>fe80::10b9:3807:af80:eace%en0</div></td></tr><tr><td><div>192.168.1.5</div></td></tr><tr><td><div>127.0.0.1</div></td></tr></table></div></td></tr><tr><td style="font-weight:bold;vertical-align:top;">web2py_version</td><td style="vertical-align:top;">:</td><td><div>2.17.1-stable+timestamp.2018.08.06.01.02.56</div></td></tr></table></div></td></tr><tr><td style="font-weight:bold;vertical-align:top;">is_https</td><td style="vertical-align:top;">:</td><td><div>False</div></td></tr><tr><td style="font-weight:bold;vertical-align:top;">is_local</td><td style="vertical-align:top;">:</td><td><div>True</div></td></tr><tr><td style="font-weight:bold;vertical-align:top;">is_restful</td><td style="vertical-align:top;">:</td><td><div>False</div></td></tr><tr><td style="font-weight:bold;vertical-align:top;">is_scheduler</td><td style="vertical-align:top;">:</td><td><div>False</div></td></tr><tr><td style="font-weight:bold;vertical-align:top;">is_shell</td><td style="vertical-align:top;">:</td><td><div>False</div></td></tr><tr><td style="font-weight:bold;vertical-align:top;">method</td><td style="vertical-align:top;">:</td><td><div>GET</div></td></tr><tr><td style="font-weight:bold;vertical-align:top;">now</td><td style="vertical-align:top;">:</td><td><div>datetime.datetime(2019, 2, 15, 7, 13, 53, 819162)</div></td></tr><tr><td style="font-weight:bold;vertical-align:top;">raw_args</td><td style="vertical-align:top;">:</td><td><div></div></td></tr><tr><td style="font-weight:bold;vertical-align:top;">raw_extension</td><td style="vertical-align:top;">:</td><td><div>None</div></td></tr><tr><td style="font-weight:bold;vertical-align:top;">url</td><td style="vertical-align:top;">:</td><td><div>/Autocart/default/index</div></td></tr><tr><td style="font-weight:bold;vertical-align:top;">utcnow</td><td style="vertical-align:top;">:</td><td><div>datetime.datetime(2019, 2, 15, 13, 13, 53, 819479)</div></td></tr><tr><td style="font-weight:bold;vertical-align:top;">wsgi</td><td style="vertical-align:top;">:</td><td><div>&lt;gluon.main.LazyWSGI object at 0x10c455dd0&gt;</div></td></tr></table></div>'
tRp60
sS'frames'
p61
(lp62
(dp63
S'file'
p64
S'/Users/elcapone/Desktop/Codetrain/web2py app/web2py.app/Contents/Resources/gluon/restricted.py'
p65
sS'dump'
p66
(dp67
sS'lnum'
p68
I219
sS'lines'
p69
(dp70
I214
S'    if environment is None:'
p71
sI215
S'        environment = {}'
p72
sI216
S"    environment['__file__'] = layer"
p73
sI217
S"    environment['__name__'] = '__restricted__'"
p74
sI218
S'    try:'
p75
sI219
S'        exec(ccode, environment)'
p76
sI220
S'    except HTTP:'
p77
sI221
S'        raise'
p78
sI222
S'    except RestrictedError:'
p79
sI223
S'        # do not encapsulate (obfuscate) the original RestrictedError'
p80
ssS'call'
p81
S'(ccode=<code object <module> at 0x108046b30, file "/Use...rces/applications/Autocart/models/db.py", line 7>, environment={\'A\': <class \'gluon.html.A\'>, \'ANY_OF\': <class \'gluon.validators.ANY_OF\'>, \'ASSIGNJS\': <function ASSIGNJS>, \'AppConfig\': <function AppConfig>, \'Auth\': <class \'gluon.tools.Auth\'>, \'B\': <class \'gluon.html.B\'>, \'BEAUTIFY\': <class \'gluon.html.BEAUTIFY\'>, \'BODY\': <class \'gluon.html.BODY\'>, \'BR\': <class \'gluon.html.BR\'>, \'BUTTON\': <class \'gluon.html.BUTTON\'>, ...}, layer=\'/Users/elcapone/Desktop/Codetrain/web2py app/web...ents/Resources/applications/Autocart/models/db.py\', scode=<code object <module> at 0x108046b30, file "/Use...rces/applications/Autocart/models/db.py", line 7>)'
p82
sS'func'
p83
S'restricted'
p84
sa(dp85
g64
S'/Users/elcapone/Desktop/Codetrain/web2py app/web2py.app/Contents/Resources/applications/Autocart/models/db.py'
p86
sg66
(dp87
sg68
I90
sg69
(dp88
I85
S'# (more options discussed in gluon/tools.py)'
p89
sI86
S'# -------------------------------------------------------------------------'
p90
sI87
S''
sI88
S'# host names must be a list of allowed host names (glob syntax allowed)'
p91
sI89
S"auth = Auth(db, host_names=configuration.get('host.names'))"
p92
sI90
S'auth.create_tables()'
p93
sI91
S''
sI92
S'# -------------------------------------------------------------------------'
p94
sI93
S'# create all tables needed by auth, maybe add a list of extra fields'
p95
sI94
S'# -------------------------------------------------------------------------'
p96
ssg81
S'()'
p97
sg83
S'<module>'
p98
sasS'pyver'
p99
S'Python 2.7.3: /Users/elcapone/Desktop/Codetrain/web2py app/web2py.app/Contents/MacOS/python (prefix: /Users/elcapone/Desktop/Codetrain/web2py app/web2py.app/Contents/Resources)'
p100
sS'session'
p101
g59
(S's\xbe\x01\x00\x00<div><table><tr><td style="font-weight:bold;vertical-align:top;">flash</td><td style="vertical-align:top;">:</td><td><div></div></td></tr><tr><td style="font-weight:bold;vertical-align:top;">last_orderby</td><td style="vertical-align:top;">:</td><td><div>None</div></td></tr><tr><td style="font-weight:bold;vertical-align:top;">last_query</td><td style="vertical-align:top;">:</td><td><div>db.internet_orders.id&gt;0</div></td></tr></table></div>'
tRp102
sS'etype'
p103
S"<type 'exceptions.AttributeError'>"
p104
sS'date'
p105
S'Fri Feb 15 07:13:53 2019'
p106
sS'response'
p107
g59
(S's\xd2\x17\x00\x00<div><table><tr><td style="font-weight:bold;vertical-align:top;">body</td><td style="vertical-align:top;">:</td><td><div>&lt;cStringIO.StringO object at 0x10c503f48&gt;</div></td></tr><tr><td style="font-weight:bold;vertical-align:top;">cookies</td><td style="vertical-align:top;">:</td><td><div><table><tr><td style="font-weight:bold;vertical-align:top;">session_id_autocart</td><td style="vertical-align:top;">:</td><td><div>127.0.0.1-ef32940d-fc48-45a5-aaa3-94484894224a<table><tr><td style="font-weight:bold;vertical-align:top;">comment</td><td style="vertical-align:top;">:</td><td><div></div></td></tr><tr><td style="font-weight:bold;vertical-align:top;">domain</td><td style="vertical-align:top;">:</td><td><div></div></td></tr><tr><td style="font-weight:bold;vertical-align:top;">expires</td><td style="vertical-align:top;">:</td><td><div></div></td></tr><tr><td style="font-weight:bold;vertical-align:top;">httponly</td><td style="vertical-align:top;">:</td><td><div></div></td></tr><tr><td style="font-weight:bold;vertical-align:top;">max-age</td><td style="vertical-align:top;">:</td><td><div></div></td></tr><tr><td style="font-weight:bold;vertical-align:top;">path</td><td style="vertical-align:top;">:</td><td><div>/</div></td></tr><tr><td style="font-weight:bold;vertical-align:top;">secure</td><td style="vertical-align:top;">:</td><td><div></div></td></tr><tr><td style="font-weight:bold;vertical-align:top;">version</td><td style="vertical-align:top;">:</td><td><div></div></td></tr></table></div></td></tr></table></div></td></tr><tr><td style="font-weight:bold;vertical-align:top;">delimiters</td><td style="vertical-align:top;">:</td><td><div><table><tr><td><div>{{</div></td></tr><tr><td><div>}}</div></td></tr></table></div></td></tr><tr><td style="font-weight:bold;vertical-align:top;">files</td><td style="vertical-align:top;">:</td><td><div><table></table></div></td></tr><tr><td style="font-weight:bold;vertical-align:top;">flash</td><td style="vertical-align:top;">:</td><td><div></div></td></tr><tr><td style="font-weight:bold;vertical-align:top;">form_label_separator</td><td style="vertical-align:top;">:</td><td><div></div></td></tr><tr><td style="font-weight:bold;vertical-align:top;">formstyle</td><td style="vertical-align:top;">:</td><td><div>bootstrap4_inline</div></td></tr><tr><td style="font-weight:bold;vertical-align:top;">generic_patterns</td><td style="vertical-align:top;">:</td><td><div><table><tr><td><div>*</div></td></tr></table></div></td></tr><tr><td style="font-weight:bold;vertical-align:top;">headers</td><td style="vertical-align:top;">:</td><td><div><table><tr><td style="font-weight:bold;vertical-align:top;">X-Powered-By</td><td style="vertical-align:top;">:</td><td><div>web2py</div></td></tr></table></div></td></tr><tr><td style="font-weight:bold;vertical-align:top;">menu</td><td style="vertical-align:top;">:</td><td><div><table></table></div></td></tr><tr><td style="font-weight:bold;vertical-align:top;">meta</td><td style="vertical-align:top;">:</td><td><div><table></table></div></td></tr><tr><td style="font-weight:bold;vertical-align:top;">models_to_run</td><td style="vertical-align:top;">:</td><td><div><table><tr><td><div>^\\w+\\.py$</div></td></tr><tr><td><div>^default/\\w+\\.py$</div></td></tr><tr><td><div>^default/index/\\w+\\.py$</div></td></tr></table></div></td></tr><tr><td style="font-weight:bold;vertical-align:top;">postprocessing</td><td style="vertical-align:top;">:</td><td><div><table></table></div></td></tr><tr><td style="font-weight:bold;vertical-align:top;">session_client</td><td style="vertical-align:top;">:</td><td><div>127.0.0.1</div></td></tr><tr><td style="font-weight:bold;vertical-align:top;">session_cookie_compression_level</td><td style="vertical-align:top;">:</td><td><div>None</div></td></tr><tr><td style="font-weight:bold;vertical-align:top;">session_cookie_expires</td><td style="vertical-align:top;">:</td><td><div>None</div></td></tr><tr><td style="font-weight:bold;vertical-align:top;">session_data_name</td><td style="vertical-align:top;">:</td><td><div>session_data_autocart</div></td></tr><tr><td style="font-weight:bold;vertical-align:top;">session_file</td><td style="vertical-align:top;">:</td><td><div>&lt;open file &#x27;/Users/elcapone/Desktop/Codetrain/web2py app/web2py.app/Contents/Resources/applications/Autocart/sessions/0f4/18d/127.0.0.1-ef32940d-fc48-45a5-aaa3-94484894224a&#x27;, mode &#x27;rb+&#x27; at 0x1080450c0&gt;</div></td></tr><tr><td style="font-weight:bold;vertical-align:top;">session_filename</td><td style="vertical-align:top;">:</td><td><div>/Users/elcapone/Desktop/Codetrain/web2py app/web2py.app/Contents/Resources/applications/Autocart/sessions/127.0.0.1-ef32940d-fc48-45a5-aaa3-94484894224a</div></td></tr><tr><td style="font-weight:bold;vertical-align:top;">session_hash</td><td style="vertical-align:top;">:</td><td><div>c671459cf701b354a37b0ef25c18571f</div></td></tr><tr><td style="font-weight:bold;vertical-align:top;">session_id</td><td style="vertical-align:top;">:</td><td><div>127.0.0.1-ef32940d-fc48-45a5-aaa3-94484894224a</div></td></tr><tr><td style="font-weight:bold;vertical-align:top;">session_id_name</td><td style="vertical-align:top;">:</td><td><div>session_id_autocart</div></td></tr><tr><td style="font-weight:bold;vertical-align:top;">session_locked</td><td style="vertical-align:top;">:</td><td><div>True</div></td></tr><tr><td style="font-weight:bold;vertical-align:top;">session_masterapp</td><td style="vertical-align:top;">:</td><td><div>Autocart</div></td></tr><tr><td style="font-weight:bold;vertical-align:top;">session_new</td><td style="vertical-align:top;">:</td><td><div>False</div></td></tr><tr><td style="font-weight:bold;vertical-align:top;">session_storage_type</td><td style="vertical-align:top;">:</td><td><div>file</div></td></tr><tr><td style="font-weight:bold;vertical-align:top;">status</td><td style="vertical-align:top;">:</td><td><div>200</div></td></tr><tr><td style="font-weight:bold;vertical-align:top;">view</td><td style="vertical-align:top;">:</td><td><div>default/index.html</div></td></tr></table></div>'
tRp108
sS'locals'
p109
(dp110
S'PY2'
p111
S'True'
p112
sS'OBJECT'
p113
S"<class 'gluon.html.OBJECT'>"
p114
sS'SQLDB'
p115
S"<class 'pydal.base.DAL'>"
p116
sg101
S"<Storage {'_formkey[products/create]': ['f88dcad...ate]': ['5fc6ab27-dbd6-4297-a835-d7496f7ae87b']}>"
p117
sS'LINK'
p118
S"<class 'gluon.html.LINK'>"
p119
sS'BR'
p120
S"<class 'gluon.html.BR'>"
p121
sS'local_import'
p122
S'<function <lambda>>'
p123
sS'OPTGROUP'
p124
S"<class 'gluon.html.OPTGROUP'>"
p125
sS'LI'
p126
S"<class 'gluon.html.LI'>"
p127
sS'PRE'
p128
S"<class 'gluon.html.PRE'>"
p129
sS'IS_INT_IN_RANGE'
p130
S"<class 'gluon.validators.IS_INT_IN_RANGE'>"
p131
sS'to_bytes'
p132
S'<function to_bytes>'
p133
sS'IS_LOWER'
p134
S"<class 'gluon.validators.IS_LOWER'>"
p135
sS'IS_STRONG'
p136
S"<class 'gluon.validators.IS_STRONG'>"
p137
sS'cache'
p138
S'<gluon.cache.Cache object>'
p139
sS'IS_IN_DB'
p140
S"<class 'gluon.validators.IS_IN_DB'>"
p141
sS'TAG'
p142
S'<gluon.html.__TAG__ object>'
p143
sS'SQLField'
p144
S"<class 'pydal.objects.Field'>"
p145
sS'BODY'
p146
S"<class 'gluon.html.BODY'>"
p147
sS'IS_DATE_IN_RANGE'
p148
S"<class 'gluon.validators.IS_DATE_IN_RANGE'>"
p149
sS'TH'
p150
S"<class 'gluon.html.TH'>"
p151
sS'URL'
p152
S'<function URL>'
p153
sS'__file__'
p154
S"'/Users/elcapone/Desktop/Codetrain/web2py app/web...ents/Resources/applications/Autocart/models/db.py'"
p155
sS'db'
p156
S'<DAL uri="sqlite://storage.sqlite">'
p157
sS'auth'
p158
S'<gluon.tools.Auth object>'
p159
sS'P'
S"<class 'gluon.html.P'>"
p160
sS'TFOOT'
p161
S"<class 'gluon.html.TFOOT'>"
p162
sS'iteritems'
p163
S'<function <lambda>>'
p164
sS'XHTML'
p165
S"<class 'gluon.html.XHTML'>"
p166
sS'ON'
p167
g112
sS'OL'
p168
S"<class 'gluon.html.OL'>"
p169
sS'TEXTAREA'
p170
S"<class 'gluon.html.TEXTAREA'>"
p171
sS'MENU'
p172
S"<class 'gluon.html.MENU'>"
p173
sS'LOAD'
p174
S'<function LOAD>'
p175
sS'CODE'
p176
S"<class 'gluon.html.CODE'>"
p177
sS'HTTP'
p178
S"<class 'gluon.http.HTTP'>"
p179
sS'HR'
p180
S"<class 'gluon.html.HR'>"
p181
sS'IS_DATETIME'
p182
S"<class 'gluon.validators.IS_DATETIME'>"
p183
sS'reduce'
p184
S'<built-in function reduce>'
p185
sg58
S"<Storage {'function': 'index', 'cookies': <Simpl...False, 'is_https': False, 'client': '127.0.0.1'}>"
p186
sS'LABEL'
p187
S"<class 'gluon.html.LABEL'>"
p188
sS'CLEANUP'
p189
S"<class 'gluon.validators.CLEANUP'>"
p190
sS'SELECT'
p191
S"<class 'gluon.html.SELECT'>"
p192
sS'CENTER'
p193
S"<class 'gluon.html.CENTER'>"
p194
sS'Auth'
p195
S"<class 'gluon.tools.Auth'>"
p196
sS'__builtins__'
p197
S"{'ArithmeticError': <type 'exceptions.ArithmeticError'>, 'AssertionError': <type 'exceptions.AssertionError'>, 'AttributeError': <type 'exceptions.AttributeError'>, 'BaseException': <type 'exceptions.BaseException'>, 'BufferError': <type 'exceptions.BufferError'>, 'BytesWarning': <type 'exceptions.BytesWarning'>, 'DeprecationWarning': <type 'exceptions.DeprecationWarning'>, 'EOFError': <type 'exceptions.EOFError'>, 'Ellipsis': Ellipsis, 'EnvironmentError': <type 'exceptions.EnvironmentError'>, ...}"
p198
sS'HTML'
p199
S"<class 'gluon.html.HTML'>"
p200
sS'SQLFORM'
p201
S"<class 'gluon.sqlhtml.SQLFORM'>"
p202
sS'EM'
p203
S"<class 'gluon.html.EM'>"
p204
sS'redirect'
p205
S'<function redirect>'
p206
sS'FIELDSET'
p207
S"<class 'gluon.html.FIELDSET'>"
p208
sS'IS_EQUAL_TO'
p209
S"<class 'gluon.validators.IS_EQUAL_TO'>"
p210
sS'HEAD'
p211
S"<class 'gluon.html.HEAD'>"
p212
sS'embed64'
p213
S'<function embed64>'
p214
sS'IS_LIST_OF'
p215
S"<class 'gluon.validators.IS_LIST_OF'>"
p216
sS'__name__'
p217
S"'__restricted__'"
p218
sS'EMBED'
p219
S"<class 'gluon.html.EMBED'>"
p220
sS'configuration'
p221
S"{'host': {'names': 'localhost:*, 127.0.0.1:*, *:...': 'sqlite://storage.sqlite', 'pool_size': '10'}}"
p222
sS'FORM'
p223
S"<class 'gluon.html.FORM'>"
p224
sS'H2'
p225
S"<class 'gluon.html.H2'>"
p226
sS'H3'
p227
S"<class 'gluon.html.H3'>"
p228
sS'AppConfig'
p229
S'<function AppConfig>'
p230
sS'H1'
p231
S"<class 'gluon.html.H1'>"
p232
sS'H6'
p233
S"<class 'gluon.html.H6'>"
p234
sS'H4'
p235
S"<class 'gluon.html.H4'>"
p236
sS'H5'
p237
S"<class 'gluon.html.H5'>"
p238
sS'UL'
p239
S"<class 'gluon.html.UL'>"
p240
sS'IS_UPPER'
p241
S"<class 'gluon.validators.IS_UPPER'>"
p242
sS'xmlescape'
p243
S'<function xmlescape>'
p244
sS'IS_TIME'
p245
S"<class 'gluon.validators.IS_TIME'>"
p246
sS'OPTION'
p247
S"<class 'gluon.html.OPTION'>"
p248
sS'TITLE'
p249
S"<class 'gluon.html.TITLE'>"
p250
sS'CRYPT'
p251
S"<class 'gluon.validators.CRYPT'>"
p252
sS'IS_EMPTY_OR'
p253
S"<class 'gluon.validators.IS_EMPTY_OR'>"
p254
sS'MARKMIN'
p255
S"<class 'gluon.html.MARKMIN'>"
p256
sS'INPUT'
p257
S"<class 'gluon.html.INPUT'>"
p258
sS'STRONG'
p259
S"<class 'gluon.html.STRONG'>"
p260
sS'COL'
p261
S"<class 'gluon.html.COL'>"
p262
sS'SCRIPT'
p263
S"<class 'gluon.html.SCRIPT'>"
p264
sS'TABLE'
p265
S"<class 'gluon.html.TABLE'>"
p266
sS'IS_IPV4'
p267
S"<class 'gluon.validators.IS_IPV4'>"
p268
sS'IS_LENGTH'
p269
S"<class 'gluon.validators.IS_LENGTH'>"
p270
sS'IS_IPV6'
p271
S"<class 'gluon.validators.IS_IPV6'>"
p272
sS'XML'
p273
S"<class 'gluon.html.XML'>"
p274
sS'B'
S"<class 'gluon.html.B'>"
p275
sS'IMG'
p276
S"<class 'gluon.html.IMG'>"
p277
sS'SQLTABLE'
p278
S"<class 'gluon.sqlhtml.SQLTABLE'>"
p279
sS'IS_MATCH'
p280
S"<class 'gluon.validators.IS_MATCH'>"
p281
sS'IS_ALPHANUMERIC'
p282
S"<class 'gluon.validators.IS_ALPHANUMERIC'>"
p283
sS'SPAN'
p284
S"<class 'gluon.html.SPAN'>"
p285
sS'IS_JSON'
p286
S"<class 'gluon.validators.IS_JSON'>"
p287
sS'IS_IPADDRESS'
p288
S"<class 'gluon.validators.IS_IPADDRESS'>"
p289
sS'IS_SLUG'
p290
S"<class 'gluon.validators.IS_SLUG'>"
p291
sS'BEAUTIFY'
p292
S"<class 'gluon.html.BEAUTIFY'>"
p293
sS'META'
p294
S"<class 'gluon.html.META'>"
p295
sS'BUTTON'
p296
S"<class 'gluon.html.BUTTON'>"
p297
sS'IS_DATE'
p298
S"<class 'gluon.validators.IS_DATE'>"
p299
sS'IS_EMAIL'
p300
S"<class 'gluon.validators.IS_EMAIL'>"
p301
sS'IS_NOT_EMPTY'
p302
S"<class 'gluon.validators.IS_NOT_EMPTY'>"
p303
sS'xrange'
p304
S"<type 'xrange'>"
p305
sS'TBODY'
p306
S"<class 'gluon.html.TBODY'>"
p307
sS'CAT'
p308
S"<class 'gluon.html.CAT'>"
p309
sS'Field'
p310
S"<class 'pydal.objects.Field'>"
p311
sS'IS_LIST_OF_EMAILS'
p312
S"<class 'gluon.validators.IS_LIST_OF_EMAILS'>"
p313
sS'DIV'
p314
S"<class 'gluon.html.DIV'>"
p315
sS'LEGEND'
p316
S"<class 'gluon.html.LEGEND'>"
p317
sS'to_native'
p318
S'<function to_native>'
p319
sS'COLGROUP'
p320
S"<class 'gluon.html.COLGROUP'>"
p321
sS'DAL'
p322
S"<class 'pydal.base.DAL'>"
p323
sS'ASSIGNJS'
p324
S'<function ASSIGNJS>'
p325
sS'TR'
p326
S"<class 'gluon.html.TR'>"
p327
sS'__package__'
p328
S'None'
p329
sS'IFRAME'
p330
S"<class 'gluon.html.IFRAME'>"
p331
sS'TD'
p332
S"<class 'gluon.html.TD'>"
p333
sS'IS_URL'
p334
S"<class 'gluon.validators.IS_URL'>"
p335
sS'A'
S"<class 'gluon.html.A'>"
p336
sS'STYLE'
p337
S"<class 'gluon.html.STYLE'>"
p338
sS'IS_DATETIME_IN_RANGE'
p339
S"<class 'gluon.validators.IS_DATETIME_IN_RANGE'>"
p340
sS'IS_IMAGE'
p341
S"<class 'gluon.validators.IS_IMAGE'>"
p342
sS'I'
S"<class 'gluon.html.I'>"
p343
sS'IS_NOT_IN_DB'
p344
S"<class 'gluon.validators.IS_NOT_IN_DB'>"
p345
sg107
S"<Storage {'body': <cStringIO.StringO object at 0...> at 0x1082e02a8>, 'view': 'default/index.html'}>"
p346
sS'THEAD'
p347
S"<class 'gluon.html.THEAD'>"
p348
sS'ANY_OF'
p349
S"<class 'gluon.validators.ANY_OF'>"
p350
sS'IS_NULL_OR'
p351
S"<class 'gluon.validators.IS_EMPTY_OR'>"
p352
sS'IS_FLOAT_IN_RANGE'
p353
S"<class 'gluon.validators.IS_FLOAT_IN_RANGE'>"
p354
sS'IS_EXPR'
p355
S"<class 'gluon.validators.IS_EXPR'>"
p356
sS'IS_IN_SET'
p357
S"<class 'gluon.validators.IS_IN_SET'>"
p358
sS'IS_UPLOAD_FILENAME'
p359
S"<class 'gluon.validators.IS_UPLOAD_FILENAME'>"
p360
sS'IS_DECIMAL_IN_RANGE'
p361
S"<class 'gluon.validators.IS_DECIMAL_IN_RANGE'>"
p362
sS'TT'
p363
S"<class 'gluon.html.TT'>"
p364
sS'T'
S'<gluon.languages.translator object>'
p365
sssS'traceback'
p366
S'Traceback (most recent call last):\n  File "/Users/elcapone/Desktop/Codetrain/web2py app/web2py.app/Contents/Resources/gluon/restricted.py", line 219, in restricted\n  File "/Users/elcapone/Desktop/Codetrain/web2py app/web2py.app/Contents/Resources/applications/Autocart/models/db.py", line 90, in <module>\nAttributeError: \'Auth\' object has no attribute \'create_tables\'\n'
p367
s.