(dp1
S'output'
p2
S'missing "pass" in view'
p3
sS'layer'
p4
S'ParserContainer'
p5
sS'code'
p6
S'response.write(\'<!DOCTYPE html>\\n<!--[if (gt IE 9)|!(IE)]><!--> <html class="no-js" lang="\', escape=False)\nresponse.write(T.accepted_language or \'en\')\nresponse.write(\'"> <!--<![endif]-->\\n  <head>\\n    <meta charset="utf-8">\\n    <!-- www.phpied.com/conditional-comments-block-downloads/ -->\\n    <!-- Always force latest IE rendering engine\\n         (even in intranet) & Chrome Frame\\n         Remove this if you use the .htaccess -->\\n    <meta http-equiv="X-UA-Compatible" content="IE=edge\', escape=False)\nresponse.write(not request.is_local and \',chrome=1\' or \'\')\nresponse.write(\'">\\n    <!--  Mobile Viewport Fix\\n          j.mp/mobileviewport & davidbcalhoun.com/2010/viewport-metatag\\n          device-width: Occupy full width of the screen in its current orientation\\n          initial-scale = 1.0 retains dimensions instead of zooming out if page height > device height\\n          user-scalable = yes allows the user to zoom in -->\\n    <meta name="viewport" content="width=device-width, initial-scale=1.0">\\n    <title>\', escape=False)\nresponse.write(response.title or request.application)\nresponse.write(\'</title>\\n    <!-- http://dev.w3.org/html5/markup/meta.name.html -->\\n    <meta name="application-name" content="\', escape=False)\nresponse.write(request.application)\nresponse.write(\'">\\n    <!-- Speaking of Google, don\\\'t forget to set your site up:\\n         http://google.com/webmasters -->\\n    <meta name="google-site-verification" content="">\\n    <!-- include stylesheets -->\\n    <link rel="stylesheet" href="\', escape=False)\nresponse.write(URL(\'static\',\'css/bootstrap.min.css\'))\nresponse.write(\'"/>\\n    <link rel="stylesheet" href="\', escape=False)\nresponse.write(URL(\'static\',\'css/styles.css\'))\nresponse.write(\'"/>\\n    <link rel="stylesheet" href="\', escape=False)\nresponse.write(URL(\'static\',\'css/bootstrap.css\'))\nresponse.write(\'"/>\\n    <link rel="shortcut icon" href="\', escape=False)\nresponse.write(URL(\'static\',\'images/favicon.ico\'))\nresponse.write(\'" type="image/x-icon">\\n    <link rel="apple-touch-icon" href="\', escape=False)\nresponse.write(URL(\'static\',\'images/favicon.png\'))\nresponse.write(\'">\\n    <!-- All JavaScript at the bottom, except for Modernizr which enables\\n         HTML5 elements & feature detects -->\\n    <script src="\', escape=False)\nresponse.write(URL(\'static\',\'js/jquery-3.3.1min.js\'))\nresponse.write(\'"></script>\\n    <!-- Favicons -->\\n    \', escape=False)\nresponse.write(\'<script type="text/javascript"><!--\\n    // These variables are used by the web2py_ajax_init function in web2py_ajax.js (which is loaded below).\\n    \', escape=False)\nresponse.write(ASSIGNJS(\nw2p_ajax_confirm_message = T(\'Are you sure you want to delete this object?\'),\nw2p_ajax_disable_with_message = T(\'Working...\'),\nw2p_ajax_date_format = T(\'%Y-%m-%d\'),\nw2p_ajax_datetime_format = T(\'%Y-%m-%d %H:%M:%S\'),\najax_error_500 = T.M(\'An error occured, please [[reload %s]] the page\') % URL(args=request.args, vars=request.get_vars)\n))\nresponse.write(\'\\n    //--></script>\\n\', escape=False)\nresponse.files.insert(0,URL(\'static\',\'js/jquery.js\'))\nresponse.files.insert(1,URL(\'static\',\'css/calendar.css\'))\nresponse.files.insert(2,URL(\'static\',\'js/calendar.js\'))\nresponse.files.insert(3,URL(\'static\',\'js/web2py.js\'))\nresponse.include_meta()\nresponse.include_files()\nresponse.write(\'\\n\', escape=False)\nresponse.write(\' <!-- this includes jquery.js, calendar.js/.css and web2py.js -->\\n    \', escape=False)\nresponse.write(\'\\n  </head>\\n  <body>\\n    <div class="w2p_flash alert alert-dismissable">\', escape=False)\nresponse.write(response.flash or \'\')\nresponse.write(\'</div>\\n    <!-- Navbar ======================================= -->\\n    <nav class="navbar navbar-light navbar-expand-md bg-faded justify-content-center">\\n       <a href="http://web2py.com" class="navbar-brand d-flex w-50 mr-auto">web2py</a>\\n       <button class="navbar-toggler" type="button" data-toggle="collapse" data-target="#navbarNavDropdown" aria-controls="navbarNavDropdown" aria-expanded="false" aria-label="Toggle navigation">\\n         <span class="navbar-toggler-icon"></span>\\n       </button>\\n       <div class="navbar-collapse collapse w-100" id="navbarNavDropdown">\\n         <ul class="navbar-nav w-100 justify-content-center">\\n          \', escape=False)\nfor _item in response.menu or []:\n    response.write(\'\\n          \', escape=False)\n    if len(_item)<4 or not _item[3]:\n        response.write(\'\\n          <li class="nav-item \', escape=False)\n        if _item[1]:\n            response.write(\'active\', escape=False)\n            pass\n        response.write(\'">\\n            <a class="nav-link" href="\', escape=False)\n        response.write(_item[2])\n        response.write(\'">\', escape=False)\n        response.write(_item[0])\n        response.write(\'</a>\\n          </li>\\n          \', escape=False)\n    else:\n        response.write(\'\\n          <li class="nav-item dropdown">\\n            <a class="nav-link dropdown-toggle" href="\', escape=False)\n        response.write(_item[2])\n        response.write(\'" data-toggle="dropdown" aria-haspopup="true" aria-expanded="false">\', escape=False)\n        response.write(_item[0])\n        response.write(\'</a>\\n            <div class="dropdown-menu">\\n              \', escape=False)\n        for _subitem in _item[3]:\n            response.write(\'\\n              <a class="dropdown-item" href="\', escape=False)\n            response.write(_subitem[2])\n            response.write(\'">\', escape=False)\n            response.write(_subitem[0])\n            response.write(\'</a>\\n              \', escape=False)\n            pass\n        response.write(\'\\n            </div>\\n          </li>\\n          \', escape=False)\n        pass\n    response.write(\'\\n          \', escape=False)\n    pass\nresponse.write(\'\\n        </ul>\\n         <form class="form-inline my-2 my-lg-0">\\n             <input class="form-control mr-sm-2" type="text" placeholder="Search">\\n         </form>\\n        \', escape=False)\nif \'auth\' in globals():\n    response.write(\'\\n        <ul class="nav navbar-nav ml-auto w-100 justify-content-end">\\n          <li class="nav-item dropdown">\\n            <a class="nav-link dropdown-toggle" href="#" data-toggle="dropdown" aria-haspopup="true" aria-expanded="false">\\n              \', escape=False)\n    if auth.user:\n        response.write(auth.user.first_name)\n    else:\n        response.write(\'LOGIN\', escape=False)\n        pass\n    response.write(\'\\n            </a>\\n            <div class="dropdown-menu dropdown-menu-right">\\n              \', escape=False)\n    if auth.user:\n        response.write(\'\\n              <a class="dropdown-item" href="\', escape=False)\n        response.write(URL(\'default\',\'user/profile\'))\n        response.write(\'">\', escape=False)\n        response.write(T(\'Profile\'))\n        response.write(\'</a>\\n              \', escape=False)\n        if \'change_password\' not in auth.settings.actions_disabled:\n            response.write(\'\\n              <a class="dropdown-item" href="\', escape=False)\n            response.write(URL(\'default\',\'user/change_password\'))\n            response.write(\'">\', escape=False)\n            response.write(T(\'Change Password\'))\n            response.write(\'</a>\\n              \', escape=False)\n            pass\n        response.write(\'\\n              <a class="dropdown-item" href="\', escape=False)\n        response.write(URL(\'default\',\'user/logout\'))\n        response.write(\'">\', escape=False)\n        response.write(T(\'Logout\'))\n        response.write(\'</a>\\n              \', escape=False)\n    else:\n        response.write(\'\\n              <a class="dropdown-item" href="\', escape=False)\n        response.write(URL(\'default\',\'user/login\'))\n        response.write(\'">\', escape=False)\n        response.write(T(\'Login\'))\n        response.write(\'</a>\\n              \', escape=False)\n        if \'register\' not in auth.settings.actions_disabled:\n            response.write(\'\\n              <a class="dropdown-item" href="\', escape=False)\n            response.write(URL(\'default\',\'user/register\'))\n            response.write(\'">\', escape=False)\n            response.write(T(\'Sign up\'))\n            response.write(\'</a>\\n              \', escape=False)\n            pass\n        response.write(\'\\n              \', escape=False)\n        if \'retrieve_password\' not in auth.settings.actions_disabled:\n            response.write(\'\\n              <a class="dropdown-item" href="\', escape=False)\n            response.write(URL(\'default\',\'user/retrieve_password\'))\n            response.write(\'">\', escape=False)\n            response.write(T(\'Lost Password\'))\n            response.write(\'</a>\\n              \', escape=False)\n            pass\n        response.write(\'\\n              \', escape=False)\n        pass\n    response.write(\'\\n            </div>\\n          </li>\\n        </ul>\\n        \', escape=False)\n    pass\nresponse.write(\'\\n      </div>\\n    </nav>\\n\\n    <!-- Masthead ===================================== -->\\n    \', escape=False)\nresponse.write(\'\\n    \', escape=False)\nresponse.write(\'\\n    <!-- Main ========================================= -->\\n    <!-- Begin page content -->\\n    <div class="container-fluid main-container">\\n      \', escape=False)\nresponse.write(\'\\n\\n<div class="container">\\n\\t<div class="row">\\n\\t\\t<h2>The Auto Market(Where Dealers and Buyers Meet)</h2>\\n\\t\\t<hr/>\\n\\t\\t\', escape=False)\nfor x in rows:\n    response.write(\'\\n\\t\\t<div class="col-md-12 shop-item">\\n\\t\\t\\t<div class="col-md-6">\\n\\t\\t\\t\\t<div class="col-md-4">image</div>\\n\\t\\t\\t\\t<div class="col-md-8">text</div>\\n\\t\\t\\t</div>\\n\\t\\t</div>\\n\\t</div>\\n</div>\\n\\n<!--<div class="container">\\n\\t<div class="row">\\n\\t\\t<h2>The Auto Market(Where Dealers and Buyers Meet)</h2>\\n\\t\\t<hr/>\\n\\t\\t\', escape=False)\n    for x in rows:\n        response.write(\'\\n\\t\\t<div class="col-6">\\n\\t\\t\\t<img class="col-4"\\n\\t\\t     src="\', escape=False)\n        response.write(URL(\'default\',\'download\', args=x.product_image))\n        response.write(\'" alt="image" />\\n\\t\\t     <div class="col-8">\\n\\t\\t\\t<p class="lead">\\n\\t\\t\\t\\t  <b>\', escape=False)\n        response.write(x.product_name)\n        response.write(\'</b>\\n\\t\\t\\t</p>\\n\\t\\t\\t<p>\\n\\t\\t\\t\\tPrice: \', escape=False)\n        response.write(x.product_price)\n        response.write(\'\\n\\t\\t\\t</p>\\n\\t\\t\\t<p>\\n\\t\\t\\t\\t\', escape=False)\n        response.write(x.shop_name)\n        response.write(\'\\n\\t\\t\\t</p>\\n\\t\\t\\t<p>\\n\\t\\t\\t\\t\', escape=False)\n        response.write(x.shop_address)\n        response.write(\'\\n\\t\\t\\t</p>\\n\\t\\t    <p>\\n\\t\\t    \\t<a href="\', escape=False)\n        response.write(x.shop_website)\n        response.write(\'" target="_new">\', escape=False)\n        response.write(x.shop_website)\n        response.write(\'</a>\\n\\t\\t    </p>\\n\\t\\t    <p>\\n\\t\\t    \\t  <form method=post action="proc">\\n\\t\\t    \\t  \\t<input type="hidden" name="productId" value="\', escape=False)\n        response.write(x.id)\n        response.write(\'" />\\n\\t\\t    \\t  \\t<input type="text" size=2 name="qty" value=1 />\\n\\t\\t    \\t  \\t<input class="btn-primary" type="submit" value="Add to Cart">\\n\\t\\t    \\t  </form>\\n\\t\\t     </p>\\n\\t\\t     <p>\\n\\t\\t     \\t  Posted by: &nbsp; \', escape=False)\n        response.write(userdict[x.created_by])\n        response.write(\'\\n\\t\\t     </p>\\n\\t\\t   </div>\\n\\t\\t  </div>\\n\\t\\t <hr/>\\n\\t\\t</div> \\n\\t\\t\', escape=False)\n        pass\n    response.write(\'\\n\\t\\t<a href="post"> Post </a>\\n\\t\\t</div>\\n\\t</div>\\n</div> -->\\n\\n<!-- <div class="container">\\n\\t<div class="row">\\n\\t\\t<h2>The Auto Market(Where Dealers and Buyers Meet)</h2>\\n\\t\\t<hr/>\\n\\t\\t\', escape=False)\n    for x in rows:\n        response.write(\'\\n\\n\\t\\t<img class="col col-lg-2 col-md-2 col-sm-6 col-xs-12"\\n\\t\\t     src="\', escape=False)\n        response.write(URL(\'default\',\'download\', args=x.product_image))\n        response.write(\'" alt="image" />\\n\\t\\t<div class="col col-lg-4 col-md-4 col-sm-6 col-xs-12">\\n\\t\\t\\t<p class="lead">\\n\\t\\t\\t\\t  <b>\', escape=False)\n        response.write(x.product_name)\n        response.write(\'</b>\\n\\t\\t\\t</p>\\n\\t\\t\\t<p>\\n\\t\\t\\t\\tPrice: \', escape=False)\n        response.write(x.product_price)\n        response.write(\'\\n\\t\\t\\t</p>\\n\\t\\t\\t<p>\\n\\t\\t\\t\\t\', escape=False)\n        response.write(x.shop_name)\n        response.write(\'\\n\\t\\t\\t</p>\\n\\t\\t\\t<p>\\n\\t\\t\\t\\t\', escape=False)\n        response.write(x.shop_address)\n        response.write(\'\\n\\t\\t\\t</p>\\n\\t\\t    <p>\\n\\t\\t    \\t<a href="\', escape=False)\n        response.write(x.shop_website)\n        response.write(\'" target="_new">\', escape=False)\n        response.write(x.shop_website)\n        response.write(\'</a>\\n\\t\\t    </p>\\n\\t\\t    <p>\\n\\t\\t    \\t  <form method=post action="proc">\\n\\t\\t    \\t  \\t<input type="hidden" name="productId" value="\', escape=False)\n        response.write(x.id)\n        response.write(\'" />\\n\\t\\t    \\t  \\t<input type="text" size=2 name="qty" value=1 />\\n\\t\\t    \\t  \\t<input class="btn-primary" type="submit" value="Add to Cart">\\n\\t\\t    \\t  </form>\\n\\t\\t     </p>\\n\\t\\t     <p>\\n\\t\\t     \\t  Posted by: &nbsp; \', escape=False)\n        response.write(userdict[x.created_by])\n        response.write(\'\\n\\t\\t     </p>\\n\\t\\t   </div>\\n\\t\\t  </div>\\n\\t\\t <hr/>\\n\\t\\t \', escape=False)\n        pass\n    response.write(\'\\n\\t\\t <a href="post"> Post </a>\\n\\t\\t</div> \\n\\t</div>\\n</div>\\t --> \\n\', escape=False)\n    response.write(\'\\n      \', escape=False)\n    response.write(response.toolbar() if response.show_toolbar else \'\')\n    response.write(\'\\n    </div>\\n\\n    \', escape=False)\n    response.write(\' <!-- this is default footer -->\\n    <footer class="footer container-fluid">\\n      <div class="row">\\n        <div class="col-md-12">\\n          <div class="copyright pull-left">\', escape=False)\n    response.write(T(\'Copyright\'))\n    response.write(\' &#169; \', escape=False)\n    response.write(request.now.year)\n    response.write(\'</div>\\n          <div id="poweredBy" class="pull-right">\\n            \', escape=False)\n    response.write(T(\'Powered by\'))\n    response.write(\'\\n            <a href="http://www.web2py.com/">web2py</a>\\n          </div>\\n        </div>\\n      </div>\\n    </footer>\\n    \', escape=False)\n    response.write(\'\\n    <!-- The javascript =============================== -->\\n    <script src="\', escape=False)\n    response.write(URL(\'static\',\'js/jquery-3.3.1.min.js\'))\n    response.write(\'"></script>\\n    <script src="\', escape=False)\n    response.write(URL(\'static\',\'js/bootstrap.js\'))\n    response.write(\'"></script>\\n    \', escape=False)\n    response.write(\'\\n    \', escape=False)\n    if response.google_analytics_id:\n        response.write(\'\\n    <!-- Analytics ==================================== -->\\n    <script src="\', escape=False)\n        response.write(URL(\'static\',\'js/analytics.min.js\'))\n        response.write(\'"></script>\\n    <script type="text/javascript">\\n      analytics.initialize({\\n      \\\'Google Analytics\\\':{trackingId:\\\'\', escape=False)\n        response.write(response.google_analytics_id)\n        response.write("\'}\\n      });\\n    </script>\\n    ", escape=False)\n        pass\n    response.write(\'\\n  </body>\\n</html>\\n\', escape=False)'
p7
sS'snapshot'
p8
(dp9
S'exception'
p10
(dp11
S'__module__'
p12
S"'gluon.rocket'"
p13
sS'__getslice__'
p14
S"<method-wrapper '__getslice__' of SocketTimeout object>"
p15
sS'__str__'
p16
S"<method-wrapper '__str__' of SocketTimeout object>"
p17
sS'__reduce__'
p18
S'<built-in method __reduce__ of SocketTimeout object>'
p19
sS'__dict__'
p20
S'{}'
p21
sS'__sizeof__'
p22
S'<built-in method __sizeof__ of SocketTimeout object>'
p23
sS'__weakref__'
p24
S'None'
p25
sS'message'
p26
S"'Socket timed out before request.'"
p27
sS'__init__'
p28
S"<method-wrapper '__init__' of SocketTimeout object>"
p29
sS'__setattr__'
p30
S"<method-wrapper '__setattr__' of SocketTimeout object>"
p31
sS'__reduce_ex__'
p32
S'<built-in method __reduce_ex__ of SocketTimeout object>'
p33
sS'__new__'
p34
S'<built-in method __new__ of type object>'
p35
sS'__format__'
p36
S'<built-in method __format__ of SocketTimeout object>'
p37
sS'__class__'
p38
S"<class 'gluon.rocket.SocketTimeout'>"
p39
sS'__doc__'
p40
S"'Exception for when a socket times out between requests.'"
p41
sS'__getitem__'
p42
S"<method-wrapper '__getitem__' of SocketTimeout object>"
p43
sS'__setstate__'
p44
S'<built-in method __setstate__ of SocketTimeout object>'
p45
sS'__getattribute__'
p46
S"<method-wrapper '__getattribute__' of SocketTimeout object>"
p47
sS'args'
p48
S"('Socket timed out before request.',)"
p49
sS'__subclasshook__'
p50
S'<built-in method __subclasshook__ of type object>'
p51
sS'__unicode__'
p52
S'<built-in method __unicode__ of SocketTimeout object>'
p53
sS'__delattr__'
p54
S"<method-wrapper '__delattr__' of SocketTimeout object>"
p55
sS'__repr__'
p56
S"<method-wrapper '__repr__' of SocketTimeout object>"
p57
sS'__hash__'
p58
S"<method-wrapper '__hash__' of SocketTimeout object>"
p59
ssS'evalue'
p60
S'Socket timed out before request.'
p61
sS'frames'
p62
(lp63
(dp64
S'file'
p65
S'/Users/caponenoreaga/Desktop/Code Train Lectures/Codetrain/web2py app/web2py.app/Contents/Resources/gluon/rocket.py'
p66
sS'dump'
p67
(dp68
sS'lnum'
p69
I1319
sS'lines'
p70
(dp71
I1314
S'            # Enter connection serve loop'
p72
sI1315
S'            while True:'
p73
sI1316
S'                if __debug__:'
p74
sI1317
S"                    self.err_log.debug('Serving a request')"
p75
sI1318
S'                try:'
p76
sI1319
S'                    self.run_app(conn)'
p77
sI1320
S'                except:'
p78
sI1321
S'                    exc = sys.exc_info()'
p79
sI1322
S'                    handled = self._handleError(*exc)'
p80
sI1323
S'                    if handled:'
p81
ssS'call'
p82
S'(self=<WSGIWorker(Thread-37, started daemon 123145406095360)>)'
p83
sS'func'
p84
S'run'
p85
sa(dp86
g65
S'/Users/caponenoreaga/Desktop/Code Train Lectures/Codetrain/web2py app/web2py.app/Contents/Resources/gluon/rocket.py'
p87
sg67
(dp88
sg69
I1812
sg70
(dp89
I1807
S'        else:'
p90
sI1808
S'            sock_file = conn.makefile(BUF_SIZE)'
p91
sI1809
S''
sI1810
S'        try:'
p92
sI1811
S'            # Read the headers and build our WSGI environment'
p93
sI1812
S'            self.environ = environ = self.build_environ(sock_file, conn)'
p94
sI1813
S''
sI1814
S'            # Handle 100 Continue'
p95
sI1815
S"            if environ.get('HTTP_EXPECT', '') == '100-continue':"
p96
sI1816
S"                res = environ['SERVER_PROTOCOL'] + ' 100 Continue\\r\\n\\r\\n'"
p97
ssg82
S'(self=<WSGIWorker(Thread-37, started daemon 123145406095360)>, conn=<gluon.rocket.Connection object>)'
p98
sg84
S'run_app'
p99
sa(dp100
g65
S'/Users/caponenoreaga/Desktop/Code Train Lectures/Codetrain/web2py app/web2py.app/Contents/Resources/gluon/rocket.py'
p101
sg67
(dp102
sg69
I1632
sg70
(dp103
I1632
S'        request = self.read_request_line(sock_file)'
p104
sI1633
S''
sI1634
S'        # Copy the Base Environment'
p105
sI1635
S'        environ = self.base_environ.copy()'
p106
sI1636
S''
sI1627
S'                                      "wsgiorg.futures": executor.futures})'
p107
sI1628
S''
sI1629
S'    def build_environ(self, sock_file, conn):'
p108
sI1630
S'        """ Build the execution environment. """'
p109
sI1631
S'        # Grab the request line'
p110
ssg82
S'(self=<WSGIWorker(Thread-37, started daemon 123145406095360)>, sock_file=<socket._fileobject object>, conn=<gluon.rocket.Connection object>)'
p111
sg84
S'build_environ'
p112
sa(dp113
g65
S'/Users/caponenoreaga/Desktop/Code Train Lectures/Codetrain/web2py app/web2py.app/Contents/Resources/gluon/rocket.py'
p114
sg67
(dp115
sg69
I1383
sg70
(dp116
I1378
S''
sI1379
S'                d = sock_file.readline()'
p117
sI1380
S'                if PY3K:'
p118
sI1381
S"                    d = d.decode('ISO-8859-1')"
p119
sI1382
S'        except socket.timeout:'
p120
sI1383
S"            raise SocketTimeout('Socket timed out before request.')"
p121
sI1384
S'        except TypeError:'
p122
sI1385
S'            raise SocketClosed('
p123
sI1386
S"                'SSL bug caused closure of socket.  See '"
p124
sI1387
S'                \'"https://groups.google.com/d/topic/web2py/P_Gw0JxWzCs".\')'
p125
ssg82
S'(self=<WSGIWorker(Thread-37, started daemon 123145406095360)>, sock_file=<socket._fileobject object>)'
p126
sg84
S'read_request_line'
p127
sasS'pyver'
p128
S'Python 2.7.3: /Users/caponenoreaga/Desktop/Code Train Lectures/Codetrain/web2py app/web2py.app/Contents/MacOS/python (prefix: /Users/caponenoreaga/Desktop/Code Train Lectures/Codetrain/web2py app/web2py.app/Contents/Resources)'
p129
sS'etype'
p130
S"<class 'gluon.rocket.SocketTimeout'>"
p131
sS'date'
p132
S'Sat Apr 13 07:58:00 2019'
p133
sS'locals'
p134
(dp135
S'sock_file'
p136
S'<socket._fileobject object>'
p137
sS'self'
p138
S'<WSGIWorker(Thread-37, started daemon 123145406095360)>'
p139
sssS'traceback'
p140
S'Traceback (most recent call last):\n  File "/Users/caponenoreaga/Desktop/Code Train Lectures/Codetrain/web2py app/web2py.app/Contents/Resources/gluon/rocket.py", line 1319, in run\n  File "/Users/caponenoreaga/Desktop/Code Train Lectures/Codetrain/web2py app/web2py.app/Contents/Resources/gluon/rocket.py", line 1812, in run_app\n  File "/Users/caponenoreaga/Desktop/Code Train Lectures/Codetrain/web2py app/web2py.app/Contents/Resources/gluon/rocket.py", line 1632, in build_environ\n  File "/Users/caponenoreaga/Desktop/Code Train Lectures/Codetrain/web2py app/web2py.app/Contents/Resources/gluon/rocket.py", line 1383, in read_request_line\nSocketTimeout: Socket timed out before request.\n'
p141
s.